target datalayout = "e-m:e-p270:32:32-p271:32:32-p272:64:64-i64:64-i128:128-f80:128-n8:16:32:64-S128"
target triple = "x86_64-pc-linux-gnu"

%class.QString = type { %struct.QArrayDataPointer }
%struct.QArrayDataPointer = type { ptr, ptr, i64 }
%class.QPen = type { ptr }
%class.QSharedPointer = type { ptr, ptr }
%class.RtpPlayerDialog = type { %class.RtpBaseDialog.base, ptr, ptr, ptr, double, double, double, double, double, double, ptr, ptr, %class.QString, %class.QSharedPointer, %class.QSharedPointer.1, i8, %class.QList.2, ptr, %class.QTimer, i64, i32, ptr, i8, ptr, ptr, ptr, ptr, ptr, %class.QMultiHash, i8, i32, i8, double, ptr, %class.QPoint }
%class.RtpBaseDialog.base = type { %class.WiresharkDialog.base }
%class.WiresharkDialog.base = type <{ %class.GeometryStateDialog, ptr, i8, [7 x i8], %class.QString, %class.QList, i32, i8 }>
%class.GeometryStateDialog = type { %class.QDialog, %class.QString, ptr }
%class.QDialog = type { %class.QWidget }
%class.QWidget = type { %class.QObject, %class.QPaintDevice.base, ptr }
%class.QObject = type { ptr, %class.QScopedPointer }
%class.QScopedPointer = type { ptr }
%class.QPaintDevice.base = type <{ ptr, i16 }>
%class.QList = type { %struct.QArrayDataPointer.0 }
%struct.QArrayDataPointer.0 = type { ptr, ptr, i64 }
%class.QSharedPointer.1 = type { ptr, ptr }
%class.QList.2 = type { %struct.QArrayDataPointer.5 }
%struct.QArrayDataPointer.5 = type { ptr, ptr, i64 }
%class.QTimer = type { %class.QObject }
%class.QMultiHash = type { ptr, i64 }
%class.QPoint = type { i32, i32 }
%class.Ui_RtpPlayerDialog = type { ptr, ptr, ptr, ptr, ptr, ptr, ptr, ptr, ptr, ptr, ptr, ptr, ptr, ptr, ptr, ptr, ptr, ptr, ptr, ptr, ptr, ptr, ptr, ptr, ptr, ptr, ptr, ptr, ptr, ptr, ptr, ptr, ptr, ptr, ptr, ptr, ptr, ptr, ptr, ptr, ptr, ptr, ptr, ptr, ptr, ptr, ptr, ptr, ptr, ptr, ptr, ptr, ptr, ptr, ptr, ptr, ptr, ptr, ptr, ptr, ptr, ptr, ptr, ptr, ptr, ptr, ptr, ptr }
%class.QPointer = type { %class.QWeakPointer }
%class.QWeakPointer = type { ptr, ptr }
%class.QCPItemStraightLine = type { %class.QCPAbstractItem.base, ptr, ptr, %class.QPen, %class.QPen }
%class.QCPAbstractItem.base = type <{ %class.QCPLayerable.base, i8, [6 x i8], %class.QPointer.43, %class.QList.44, %class.QList.48, i8, i8 }>
%class.QCPLayerable.base = type <{ %class.QObject, i8, [7 x i8], ptr, %class.QPointer, ptr, i8 }>
%class.QPointer.43 = type { %class.QWeakPointer }
%class.QList.44 = type { %struct.QArrayDataPointer.47 }
%struct.QArrayDataPointer.47 = type { ptr, ptr, i64 }
%class.QList.48 = type { %struct.QArrayDataPointer.51 }
%struct.QArrayDataPointer.51 = type { ptr, ptr, i64 }
%class.QCPItemPosition = type { %class.QCPItemAnchor, i32, i32, %class.QPointer.89, %class.QPointer.89, %class.QPointer.43, double, double, ptr, ptr }
%class.QCPItemAnchor = type { ptr, %class.QString, ptr, ptr, i32, %class.QSet.131, %class.QSet.131 }
%class.QSet.131 = type { %class.QHash.132 }
%class.QHash.132 = type { ptr }
%class.QPointer.89 = type { %class.QWeakPointer }

; Function Attrs: mustprogress nounwind null_pointer_is_valid sspstrong uwtable
define linkonce_odr noundef double @_ZNK15QCPItemPosition3keyEv(ptr noundef align 8 dereferenceable_or_null(160) %0) #6 comdat align 2 {
  %2 = alloca ptr, align 8
  store ptr %0, ptr %2, align 8
  %3 = load ptr, ptr %2, align 8
  %4 = getelementptr inbounds nuw %class.QCPItemPosition, ptr %3, i32 0, i32 6
  %5 = load double, ptr %4, align 8
  ret double %5
}

; Function Attrs: mustprogress null_pointer_is_valid sspstrong uwtable
define void @_ZN15RtpPlayerDialog15setPlayPositionEd(ptr noundef align 8 dereferenceable_or_null(472) %0, double noundef %1) #0 align 2 {
  %3 = alloca ptr, align 8
  %4 = alloca double, align 8
  %5 = alloca double, align 8
  store ptr %0, ptr %3, align 8
  store double %1, ptr %4, align 8
  %6 = load ptr, ptr %3, align 8
  call void @llvm.lifetime.start.p0(i64 8, ptr %5) #26
  %7 = getelementptr inbounds nuw %class.RtpPlayerDialog, ptr %6, i32 0, i32 10
  %8 = load ptr, ptr %7, align 8
  %9 = getelementptr inbounds nuw %class.QCPItemStraightLine, ptr %8, i32 0, i32 1
  %10 = load ptr, ptr %9, align 8
  %11 = call noundef double @_ZNK15QCPItemPosition3keyEv(ptr noundef align 8 dereferenceable_or_null(160) %10)
  store double %11, ptr %5, align 8
  %12 = getelementptr inbounds nuw %class.RtpPlayerDialog, ptr %6, i32 0, i32 1
  %13 = load ptr, ptr %12, align 8
  %14 = getelementptr inbounds nuw %class.Ui_RtpPlayerDialog, ptr %13, i32 0, i32 65
  %15 = load ptr, ptr %14, align 8
  %16 = call noundef zeroext i1 @_ZNK15QAbstractButton9isCheckedEv(ptr noundef align 8 dereferenceable_or_null(40) %15)
  br i1 %16, label %17, label %22

17:                                               ; preds = %2
  %18 = getelementptr inbounds nuw %class.RtpPlayerDialog, ptr %6, i32 0, i32 5
  %19 = load double, ptr %18, align 8
  %20 = load double, ptr %4, align 8
  %21 = fadd double %20, %19
  store double %21, ptr %4, align 8
  br label %27

22:                                               ; preds = %2
  %23 = getelementptr inbounds nuw %class.RtpPlayerDialog, ptr %6, i32 0, i32 4
  %24 = load double, ptr %23, align 8
  %25 = load double, ptr %4, align 8
  %26 = fadd double %25, %24
  store double %26, ptr %4, align 8
  br label %27

27:                                               ; preds = %22, %17
  %28 = load double, ptr %4, align 8
  %29 = load double, ptr %5, align 8
  %30 = fcmp ogt double %28, %29
  br i1 %30, label %31, label %46

31:                                               ; preds = %27
  %32 = getelementptr inbounds nuw %class.RtpPlayerDialog, ptr %6, i32 0, i32 10
  %33 = load ptr, ptr %32, align 8
  %34 = getelementptr inbounds nuw %class.QCPItemStraightLine, ptr %33, i32 0, i32 1
  %35 = load ptr, ptr %34, align 8
  %36 = load double, ptr %4, align 8
  call void @_ZN15QCPItemPosition9setCoordsEdd(ptr noundef align 8 dereferenceable_or_null(160) %35, double noundef %36, double noundef 0.000000e+00)
  %37 = getelementptr inbounds nuw %class.RtpPlayerDialog, ptr %6, i32 0, i32 10
  %38 = load ptr, ptr %37, align 8
  %39 = getelementptr inbounds nuw %class.QCPItemStraightLine, ptr %38, i32 0, i32 2
  %40 = load ptr, ptr %39, align 8
  %41 = load double, ptr %4, align 8
  call void @_ZN15QCPItemPosition9setCoordsEdd(ptr noundef align 8 dereferenceable_or_null(160) %40, double noundef %41, double noundef 1.000000e+00)
  %42 = getelementptr inbounds nuw %class.RtpPlayerDialog, ptr %6, i32 0, i32 1
  %43 = load ptr, ptr %42, align 8
  %44 = getelementptr inbounds nuw %class.Ui_RtpPlayerDialog, ptr %43, i32 0, i32 39
  %45 = load ptr, ptr %44, align 8
  call void @_ZN11QCustomPlot6replotENS_15RefreshPriorityE(ptr noundef align 8 dereferenceable_or_null(513) %45, i32 noundef 2)
  br label %46

46:                                               ; preds = %31, %27
  call void @llvm.lifetime.end.p0(i64 8, ptr %5) #26
  ret void
}