; Function Attrs: mustprogress null_pointer_is_valid sspstrong uwtable
define void @_ZN15RtpPlayerDialog15setPlayPositionEd(ptr noundef readonly align 8 captures(none) dereferenceable_or_null(472) %0, double noundef %1) local_unnamed_addr #0 align 2 {
  %3 = getelementptr inbounds nuw i8, ptr %0, i64 216
  %4 = load ptr, ptr %3, align 8
  %5 = getelementptr inbounds nuw i8, ptr %4, i64 136
  %6 = load ptr, ptr %5, align 8
  %7 = getelementptr inbounds nuw i8, ptr %6, i64 128
  %8 = load double, ptr %7, align 8
  %9 = getelementptr inbounds nuw i8, ptr %0, i64 144
  %10 = load ptr, ptr %9, align 8
  %11 = getelementptr inbounds nuw i8, ptr %10, i64 520
  %12 = load ptr, ptr %11, align 8
  %13 = tail call noundef zeroext i1 @_ZNK15QAbstractButton9isCheckedEv(ptr noundef align 8 dereferenceable_or_null(40) %12)
  %.pn.in.v = select i1 %13, i64 176, i64 168
  %.pn.in = getelementptr inbounds nuw i8, ptr %0, i64 %.pn.in.v
  %.pn = load double, ptr %.pn.in, align 8
  %.0 = fadd double %1, %.pn
  %14 = fcmp ogt double %.0, %8
  br i1 %14, label %15, label %25

15:                                               ; preds = %2
  %16 = load ptr, ptr %3, align 8
  %17 = getelementptr inbounds nuw i8, ptr %16, i64 136
  %18 = load ptr, ptr %17, align 8
  tail call void @_ZN15QCPItemPosition9setCoordsEdd(ptr noundef align 8 dereferenceable_or_null(160) %18, double noundef %.0, double noundef 0.000000e+00)
  %19 = load ptr, ptr %3, align 8
  %20 = getelementptr inbounds nuw i8, ptr %19, i64 144
  %21 = load ptr, ptr %20, align 8
  tail call void @_ZN15QCPItemPosition9setCoordsEdd(ptr noundef align 8 dereferenceable_or_null(160) %21, double noundef %.0, double noundef 1.000000e+00)
  %22 = load ptr, ptr %9, align 8
  %23 = getelementptr inbounds nuw i8, ptr %22, i64 312
  %24 = load ptr, ptr %23, align 8
  tail call void @_ZN11QCustomPlot6replotENS_15RefreshPriorityE(ptr noundef align 8 dereferenceable_or_null(513) %24, i32 noundef 2)
  br label %25

25:                                               ; preds = %15, %2
  ret void
}